target datalayout = "e-m:e-p270:32:32-p271:32:32-p272:64:64-i64:64-i128:128-f80:128-n8:16:32:64-S128"
target triple = "x86_64-pc-linux-gnu"

%"class.std::__cxx11::basic_string" = type { %"struct.std::__cxx11::basic_string<char>::_Alloc_hider", i64, %union.anon }
%"struct.std::__cxx11::basic_string<char>::_Alloc_hider" = type { ptr }
%union.anon = type { i64, [8 x i8] }
%"class.google::protobuf::internal::LogMessage" = type { i32, ptr, i32, %"class.std::__cxx11::basic_string" }
%"class.google::protobuf::internal::LogFinisher" = type { i8 }
%"class.google::protobuf::RepeatedField.2" = type { i32, i32, ptr }

@.str.13 = private unnamed_addr constant [146 x i8] c"generated/home/dtcxzyw/WorkSpace/Projects/compilers/llvm-opt-benchmark/bench/opencv/opencv/3rdparty/protobuf/src/google/protobuf/repeated_field.h\00", align 1
@.str.14 = private unnamed_addr constant [36 x i8] c"CHECK failed: (total_size_) > (0): \00", align 1
@.str.15 = private unnamed_addr constant [31 x i8] c"CHECK failed: (index) >= (0): \00", align 1
@.str.16 = private unnamed_addr constant [42 x i8] c"CHECK failed: (index) < (current_size_): \00", align 1

; Function Attrs: mustprogress nounwind uwtable
define linkonce_odr hidden noundef i32 @_ZN6google8protobuf4Bits18Log2FloorNonZero64Em(i64 noundef %0) #8 comdat align 2 {
  %2 = alloca i64, align 8
  store i64 %0, ptr %2, align 8, !tbaa !21
  %3 = load i64, ptr %2, align 8, !tbaa !21
  %4 = call i64 @llvm.ctlz.i64(i64 %3, i1 true)
  %5 = trunc i64 %4 to i32
  %6 = xor i32 63, %5
  ret i32 %6
}

; Function Attrs: mustprogress nounwind uwtable
define available_externally noundef ptr @_ZNK6google8protobuf13RepeatedFieldImE15unsafe_elementsEv(ptr noundef nonnull align 8 dereferenceable(16) %0) #8 align 2 {
  %2 = alloca ptr, align 8
  store ptr %0, ptr %2, align 8, !tbaa !100
  %3 = load ptr, ptr %2, align 8
  %4 = getelementptr inbounds nuw %"class.google::protobuf::RepeatedField.2", ptr %3, i32 0, i32 2
  %5 = load ptr, ptr %4, align 8, !tbaa !136
  ret ptr %5
}

; Function Attrs: inlinehint mustprogress uwtable
define linkonce_odr hidden noundef i64 @_ZN6google8protobuf2io17CodedOutputStream12VarintSize64Em(i64 noundef %0) #7 comdat align 2 {
  %2 = alloca i64, align 8
  %3 = alloca i32, align 4
  store i64 %0, ptr %2, align 8, !tbaa !21
  call void @llvm.lifetime.start.p0(i64 4, ptr %3) #3
  %4 = load i64, ptr %2, align 8, !tbaa !21
  %5 = or i64 %4, 1
  %6 = call noundef i32 @_ZN6google8protobuf4Bits18Log2FloorNonZero64Em(i64 noundef %5)
  store i32 %6, ptr %3, align 4, !tbaa !8
  %7 = load i32, ptr %3, align 4, !tbaa !8
  %8 = mul i32 %7, 9
  %9 = add i32 %8, 73
  %10 = udiv i32 %9, 64
  %11 = zext i32 %10 to i64
  call void @llvm.lifetime.end.p0(i64 4, ptr %3) #3
  ret i64 %11
}

; Function Attrs: mustprogress uwtable
define available_externally noundef ptr @_ZNK6google8protobuf13RepeatedFieldImE8elementsEv(ptr noundef nonnull align 8 dereferenceable(16) %0) #4 align 2 personality ptr @__gxx_personality_v0 {
  %2 = alloca ptr, align 8
  %3 = alloca %"class.google::protobuf::internal::LogMessage", align 8
  %4 = alloca i1, align 1
  %5 = alloca i1, align 1
  %6 = alloca ptr, align 8
  %7 = alloca i32, align 4
  %8 = alloca %"class.google::protobuf::internal::LogFinisher", align 1
  store ptr %0, ptr %2, align 8, !tbaa !100
  %9 = load ptr, ptr %2, align 8
  br label %10

10:                                               ; preds = %26, %1
  br i1 false, label %11, label %42

11:                                               ; preds = %10
  %12 = getelementptr inbounds nuw %"class.google::protobuf::RepeatedField.2", ptr %9, i32 0, i32 1
  %13 = load i32, ptr %12, align 4, !tbaa !134
  %14 = icmp sgt i32 %13, 0
  store i1 false, ptr %4, align 1
  store i1 false, ptr %5, align 1
  call void @llvm.lifetime.start.p0(i64 1, ptr %8) #3
  br i1 %14, label %15, label %16

15:                                               ; preds = %11
  br label %20

16:                                               ; preds = %11
  call void @llvm.lifetime.start.p0(i64 56, ptr %3) #3
  store i1 true, ptr %4, align 1
  call void @_ZN6google8protobuf8internal10LogMessageC1ENS0_8LogLevelEPKci(ptr noundef nonnull align 8 dereferenceable(56) %3, i32 noundef 3, ptr noundef @.str.13, i32 noundef 353)
  store i1 true, ptr %5, align 1
  %17 = invoke noundef nonnull align 8 dereferenceable(56) ptr @_ZN6google8protobuf8internal10LogMessagelsEPKc(ptr noundef nonnull align 8 dereferenceable(56) %3, ptr noundef @.str.14)
          to label %18 unwind label %27

18:                                               ; preds = %16
  invoke void @_ZN6google8protobuf8internal11LogFinisheraSERNS1_10LogMessageE(ptr noundef nonnull align 1 dereferenceable(1) %8, ptr noundef nonnull align 8 dereferenceable(56) %17)
          to label %19 unwind label %31

19:                                               ; preds = %18
  br label %20

20:                                               ; preds = %19, %15
  call void @llvm.lifetime.end.p0(i64 1, ptr %8) #3
  %21 = load i1, ptr %5, align 1
  br i1 %21, label %22, label %23

22:                                               ; preds = %20
  call void @_ZN6google8protobuf8internal10LogMessageD1Ev(ptr noundef nonnull align 8 dereferenceable(56) %3) #3
  br label %23

23:                                               ; preds = %22, %20
  %24 = load i1, ptr %4, align 1
  br i1 %24, label %25, label %26

25:                                               ; preds = %23
  call void @llvm.lifetime.end.p0(i64 56, ptr %3) #3
  br label %26

26:                                               ; preds = %25, %23
  br label %10, !llvm.loop !135

27:                                               ; preds = %16
  %28 = landingpad { ptr, i32 }
          cleanup
  %29 = extractvalue { ptr, i32 } %28, 0
  store ptr %29, ptr %6, align 8
  %30 = extractvalue { ptr, i32 } %28, 1
  store i32 %30, ptr %7, align 4
  br label %35

31:                                               ; preds = %18
  %32 = landingpad { ptr, i32 }
          cleanup
  %33 = extractvalue { ptr, i32 } %32, 0
  store ptr %33, ptr %6, align 8
  %34 = extractvalue { ptr, i32 } %32, 1
  store i32 %34, ptr %7, align 4
  call void @llvm.lifetime.end.p0(i64 1, ptr %8) #3
  br label %35

35:                                               ; preds = %31, %27
  %36 = load i1, ptr %5, align 1
  br i1 %36, label %37, label %38

37:                                               ; preds = %35
  call void @_ZN6google8protobuf8internal10LogMessageD1Ev(ptr noundef nonnull align 8 dereferenceable(56) %3) #3
  br label %38

38:                                               ; preds = %37, %35
  %39 = load i1, ptr %4, align 1
  br i1 %39, label %40, label %41

40:                                               ; preds = %38
  call void @llvm.lifetime.end.p0(i64 56, ptr %3) #3
  br label %41

41:                                               ; preds = %40, %38
  br label %44

42:                                               ; preds = %10
  %43 = call noundef ptr @_ZNK6google8protobuf13RepeatedFieldImE15unsafe_elementsEv(ptr noundef nonnull align 8 dereferenceable(16) %9)
  ret ptr %43

44:                                               ; preds = %41
  %45 = load ptr, ptr %6, align 8
  %46 = load i32, ptr %7, align 4
  %47 = insertvalue { ptr, i32 } poison, ptr %45, 0
  %48 = insertvalue { ptr, i32 } %47, i32 %46, 1
  resume { ptr, i32 } %48
}

; Function Attrs: inlinehint mustprogress uwtable
define linkonce_odr hidden noundef i64 @_ZN6google8protobuf8internal14WireFormatLite10UInt64SizeEm(i64 noundef %0) #7 comdat align 2 {
  %2 = alloca i64, align 8
  store i64 %0, ptr %2, align 8, !tbaa !21
  %3 = load i64, ptr %2, align 8, !tbaa !21
  %4 = call noundef i64 @_ZN6google8protobuf2io17CodedOutputStream12VarintSize64Em(i64 noundef %3)
  ret i64 %4
}

; Function Attrs: inlinehint mustprogress uwtable
define available_externally noundef nonnull align 8 dereferenceable(8) ptr @_ZNK6google8protobuf13RepeatedFieldImE3GetEi(ptr noundef nonnull align 8 dereferenceable(16) %0, i32 noundef %1) #7 align 2 personality ptr @__gxx_personality_v0 {
  %3 = alloca ptr, align 8
  %4 = alloca i32, align 4
  %5 = alloca %"class.google::protobuf::internal::LogMessage", align 8
  %6 = alloca i1, align 1
  %7 = alloca i1, align 1
  %8 = alloca ptr, align 8
  %9 = alloca i32, align 4
  %10 = alloca %"class.google::protobuf::internal::LogFinisher", align 1
  %11 = alloca %"class.google::protobuf::internal::LogMessage", align 8
  %12 = alloca i1, align 1
  %13 = alloca i1, align 1
  %14 = alloca %"class.google::protobuf::internal::LogFinisher", align 1
  store ptr %0, ptr %3, align 8, !tbaa !100
  store i32 %1, ptr %4, align 4, !tbaa !8
  %15 = load ptr, ptr %3, align 8
  br label %16

16:                                               ; preds = %31, %2
  br i1 false, label %17, label %47

17:                                               ; preds = %16
  %18 = load i32, ptr %4, align 4, !tbaa !8
  %19 = icmp sge i32 %18, 0
  store i1 false, ptr %6, align 1
  store i1 false, ptr %7, align 1
  call void @llvm.lifetime.start.p0(i64 1, ptr %10) #3
  br i1 %19, label %20, label %21

20:                                               ; preds = %17
  br label %25

21:                                               ; preds = %17
  call void @llvm.lifetime.start.p0(i64 56, ptr %5) #3
  store i1 true, ptr %6, align 1
  call void @_ZN6google8protobuf8internal10LogMessageC1ENS0_8LogLevelEPKci(ptr noundef nonnull align 8 dereferenceable(56) %5, i32 noundef 3, ptr noundef @.str.13, i32 noundef 639)
  store i1 true, ptr %7, align 1
  %22 = invoke noundef nonnull align 8 dereferenceable(56) ptr @_ZN6google8protobuf8internal10LogMessagelsEPKc(ptr noundef nonnull align 8 dereferenceable(56) %5, ptr noundef @.str.15)
          to label %23 unwind label %32

23:                                               ; preds = %21
  invoke void @_ZN6google8protobuf8internal11LogFinisheraSERNS1_10LogMessageE(ptr noundef nonnull align 1 dereferenceable(1) %10, ptr noundef nonnull align 8 dereferenceable(56) %22)
          to label %24 unwind label %36

24:                                               ; preds = %23
  br label %25

25:                                               ; preds = %24, %20
  call void @llvm.lifetime.end.p0(i64 1, ptr %10) #3
  %26 = load i1, ptr %7, align 1
  br i1 %26, label %27, label %28

27:                                               ; preds = %25
  call void @_ZN6google8protobuf8internal10LogMessageD1Ev(ptr noundef nonnull align 8 dereferenceable(56) %5) #3
  br label %28

28:                                               ; preds = %27, %25
  %29 = load i1, ptr %6, align 1
  br i1 %29, label %30, label %31

30:                                               ; preds = %28
  call void @llvm.lifetime.end.p0(i64 56, ptr %5) #3
  br label %31

31:                                               ; preds = %30, %28
  br label %16, !llvm.loop !105

32:                                               ; preds = %21
  %33 = landingpad { ptr, i32 }
          cleanup
  %34 = extractvalue { ptr, i32 } %33, 0
  store ptr %34, ptr %8, align 8
  %35 = extractvalue { ptr, i32 } %33, 1
  store i32 %35, ptr %9, align 4
  br label %40

36:                                               ; preds = %23
  %37 = landingpad { ptr, i32 }
          cleanup
  %38 = extractvalue { ptr, i32 } %37, 0
  store ptr %38, ptr %8, align 8
  %39 = extractvalue { ptr, i32 } %37, 1
  store i32 %39, ptr %9, align 4
  call void @llvm.lifetime.end.p0(i64 1, ptr %10) #3
  br label %40

40:                                               ; preds = %36, %32
  %41 = load i1, ptr %7, align 1
  br i1 %41, label %42, label %43

42:                                               ; preds = %40
  call void @_ZN6google8protobuf8internal10LogMessageD1Ev(ptr noundef nonnull align 8 dereferenceable(56) %5) #3
  br label %43

43:                                               ; preds = %42, %40
  %44 = load i1, ptr %6, align 1
  br i1 %44, label %45, label %46

45:                                               ; preds = %43
  call void @llvm.lifetime.end.p0(i64 56, ptr %5) #3
  br label %46

46:                                               ; preds = %45, %43
  br label %86

47:                                               ; preds = %16
  br label %48

48:                                               ; preds = %65, %47
  br i1 false, label %49, label %81

49:                                               ; preds = %48
  %50 = load i32, ptr %4, align 4, !tbaa !8
  %51 = getelementptr inbounds nuw %"class.google::protobuf::RepeatedField.2", ptr %15, i32 0, i32 0
  %52 = load i32, ptr %51, align 8, !tbaa !103
  %53 = icmp slt i32 %50, %52
  store i1 false, ptr %12, align 1
  store i1 false, ptr %13, align 1
  call void @llvm.lifetime.start.p0(i64 1, ptr %14) #3
  br i1 %53, label %54, label %55

54:                                               ; preds = %49
  br label %59

55:                                               ; preds = %49
  call void @llvm.lifetime.start.p0(i64 56, ptr %11) #3
  store i1 true, ptr %12, align 1
  call void @_ZN6google8protobuf8internal10LogMessageC1ENS0_8LogLevelEPKci(ptr noundef nonnull align 8 dereferenceable(56) %11, i32 noundef 3, ptr noundef @.str.13, i32 noundef 640)
  store i1 true, ptr %13, align 1
  %56 = invoke noundef nonnull align 8 dereferenceable(56) ptr @_ZN6google8protobuf8internal10LogMessagelsEPKc(ptr noundef nonnull align 8 dereferenceable(56) %11, ptr noundef @.str.16)
          to label %57 unwind label %66

57:                                               ; preds = %55
  invoke void @_ZN6google8protobuf8internal11LogFinisheraSERNS1_10LogMessageE(ptr noundef nonnull align 1 dereferenceable(1) %14, ptr noundef nonnull align 8 dereferenceable(56) %56)
          to label %58 unwind label %70

58:                                               ; preds = %57
  br label %59

59:                                               ; preds = %58, %54
  call void @llvm.lifetime.end.p0(i64 1, ptr %14) #3
  %60 = load i1, ptr %13, align 1
  br i1 %60, label %61, label %62

61:                                               ; preds = %59
  call void @_ZN6google8protobuf8internal10LogMessageD1Ev(ptr noundef nonnull align 8 dereferenceable(56) %11) #3
  br label %62

62:                                               ; preds = %61, %59
  %63 = load i1, ptr %12, align 1
  br i1 %63, label %64, label %65

64:                                               ; preds = %62
  call void @llvm.lifetime.end.p0(i64 56, ptr %11) #3
  br label %65

65:                                               ; preds = %64, %62
  br label %48, !llvm.loop !106

66:                                               ; preds = %55
  %67 = landingpad { ptr, i32 }
          cleanup
  %68 = extractvalue { ptr, i32 } %67, 0
  store ptr %68, ptr %8, align 8
  %69 = extractvalue { ptr, i32 } %67, 1
  store i32 %69, ptr %9, align 4
  br label %74

70:                                               ; preds = %57
  %71 = landingpad { ptr, i32 }
          cleanup
  %72 = extractvalue { ptr, i32 } %71, 0
  store ptr %72, ptr %8, align 8
  %73 = extractvalue { ptr, i32 } %71, 1
  store i32 %73, ptr %9, align 4
  call void @llvm.lifetime.end.p0(i64 1, ptr %14) #3
  br label %74

74:                                               ; preds = %70, %66
  %75 = load i1, ptr %13, align 1
  br i1 %75, label %76, label %77

76:                                               ; preds = %74
  call void @_ZN6google8protobuf8internal10LogMessageD1Ev(ptr noundef nonnull align 8 dereferenceable(56) %11) #3
  br label %77

77:                                               ; preds = %76, %74
  %78 = load i1, ptr %12, align 1
  br i1 %78, label %79, label %80

79:                                               ; preds = %77
  call void @llvm.lifetime.end.p0(i64 56, ptr %11) #3
  br label %80

80:                                               ; preds = %79, %77
  br label %86

81:                                               ; preds = %48
  %82 = call noundef ptr @_ZNK6google8protobuf13RepeatedFieldImE8elementsEv(ptr noundef nonnull align 8 dereferenceable(16) %15)
  %83 = load i32, ptr %4, align 4, !tbaa !8
  %84 = sext i32 %83 to i64
  %85 = getelementptr inbounds i64, ptr %82, i64 %84
  ret ptr %85

86:                                               ; preds = %80, %46
  %87 = load ptr, ptr %8, align 8
  %88 = load i32, ptr %9, align 4
  %89 = insertvalue { ptr, i32 } poison, ptr %87, 0
  %90 = insertvalue { ptr, i32 } %89, i32 %88, 1
  resume { ptr, i32 } %90
}

; Function Attrs: inlinehint mustprogress nounwind uwtable
define available_externally noundef i32 @_ZNK6google8protobuf13RepeatedFieldImE4sizeEv(ptr noundef nonnull align 8 dereferenceable(16) %0) #5 align 2 {
  %2 = alloca ptr, align 8
  store ptr %0, ptr %2, align 8, !tbaa !100
  %3 = load ptr, ptr %2, align 8
  %4 = getelementptr inbounds nuw %"class.google::protobuf::RepeatedField.2", ptr %3, i32 0, i32 0
  %5 = load i32, ptr %4, align 8, !tbaa !103
  ret i32 %5
}

; Function Attrs: mustprogress uwtable
define hidden noundef i64 @_ZN6google8protobuf8internal14WireFormatLite10UInt64SizeERKNS0_13RepeatedFieldImEE(ptr noundef nonnull align 8 dereferenceable(16) %0) #4 align 2 {
  %2 = alloca ptr, align 8
  %3 = alloca i64, align 8
  %4 = alloca i32, align 4
  %5 = alloca i32, align 4
  store ptr %0, ptr %2, align 8, !tbaa !100
  call void @llvm.lifetime.start.p0(i64 8, ptr %3) #3
  store i64 0, ptr %3, align 8, !tbaa !21
  call void @llvm.lifetime.start.p0(i64 4, ptr %4) #3
  %6 = load ptr, ptr %2, align 8, !tbaa !100
  %7 = call noundef i32 @_ZNK6google8protobuf13RepeatedFieldImE4sizeEv(ptr noundef nonnull align 8 dereferenceable(16) %6)
  store i32 %7, ptr %4, align 4, !tbaa !8
  call void @llvm.lifetime.start.p0(i64 4, ptr %5) #3
  store i32 0, ptr %5, align 4, !tbaa !8
  br label %8

8:                                                ; preds = %21, %1
  %9 = load i32, ptr %5, align 4, !tbaa !8
  %10 = load i32, ptr %4, align 4, !tbaa !8
  %11 = icmp slt i32 %9, %10
  br i1 %11, label %13, label %12

12:                                               ; preds = %8
  call void @llvm.lifetime.end.p0(i64 4, ptr %5) #3
  br label %24

13:                                               ; preds = %8
  %14 = load ptr, ptr %2, align 8, !tbaa !100
  %15 = load i32, ptr %5, align 4, !tbaa !8
  %16 = call noundef nonnull align 8 dereferenceable(8) ptr @_ZNK6google8protobuf13RepeatedFieldImE3GetEi(ptr noundef nonnull align 8 dereferenceable(16) %14, i32 noundef %15)
  %17 = load i64, ptr %16, align 8, !tbaa !21
  %18 = call noundef i64 @_ZN6google8protobuf8internal14WireFormatLite10UInt64SizeEm(i64 noundef %17)
  %19 = load i64, ptr %3, align 8, !tbaa !21
  %20 = add i64 %19, %18
  store i64 %20, ptr %3, align 8, !tbaa !21
  br label %21

21:                                               ; preds = %13
  %22 = load i32, ptr %5, align 4, !tbaa !8
  %23 = add nsw i32 %22, 1
  store i32 %23, ptr %5, align 4, !tbaa !8
  br label %8, !llvm.loop !102

24:                                               ; preds = %12
  %25 = load i64, ptr %3, align 8, !tbaa !21
  call void @llvm.lifetime.end.p0(i64 4, ptr %4) #3
  call void @llvm.lifetime.end.p0(i64 8, ptr %3) #3
  ret i64 %25
}